Archive member included because of file (symbol)

c:/program files (x86)/gnu tools arm embedded/4.9 2015q2/bin/../lib/gcc/arm-none-eabi/4.9.3/../../../../arm-none-eabi/lib/armv7e-m\libg_nano.a(lib_a-memcpy.o)
                              build/kitronik_arcade_m4_J/flash_samd51.o (memcpy)
c:/program files (x86)/gnu tools arm embedded/4.9 2015q2/bin/../lib/gcc/arm-none-eabi/4.9.3/../../../../arm-none-eabi/lib/armv7e-m\libg_nano.a(lib_a-memset.o)
                              build/kitronik_arcade_m4_J/screen.o (memset)

Allocating common symbols
Common symbol       size              file

b_sharp_received    0x1               build/kitronik_arcade_m4_J/usart_sam_ba.o
block_erased        0x40              build/kitronik_arcade_m4_J/flash_samd51.o
timerHigh           0x4               build/kitronik_arcade_m4_J/utils.o
idx_rx_write        0x1               build/kitronik_arcade_m4_J/usart_sam_ba.o
size_of_data        0x2               build/kitronik_arcade_m4_J/usart_sam_ba.o
fb                  0x5400            build/kitronik_arcade_m4_J/screen.o
resetHorizon        0x4               build/kitronik_arcade_m4_J/utils.o
idx_tx_read         0x1               build/kitronik_arcade_m4_J/usart_sam_ba.o
buffer_tx_usart     0x80              build/kitronik_arcade_m4_J/usart_sam_ba.o
error_timeout       0x1               build/kitronik_arcade_m4_J/usart_sam_ba.o
mode_of_transfer    0x1               build/kitronik_arcade_m4_J/usart_sam_ba.o
idx_rx_read         0x1               build/kitronik_arcade_m4_J/usart_sam_ba.o
pageBuf             0x100             build/kitronik_arcade_m4_J/selfmain.o
idx_tx_write        0x1               build/kitronik_arcade_m4_J/usart_sam_ba.o
row_same            0x800             build/kitronik_arcade_m4_J/flash_samd51.o
buffer_rx_usart     0x80              build/kitronik_arcade_m4_J/usart_sam_ba.o

Discarded input sections

 .text          0x00000000        0x0 build/kitronik_arcade_m4_J/flash_samd51.o
 .data          0x00000000        0x0 build/kitronik_arcade_m4_J/flash_samd51.o
 .bss           0x00000000        0x0 build/kitronik_arcade_m4_J/flash_samd51.o
 .text.flash_erase_block
                0x00000000       0x20 build/kitronik_arcade_m4_J/flash_samd51.o
 .text.flash_erase_to_end
                0x00000000       0x34 build/kitronik_arcade_m4_J/flash_samd51.o
 .text.copy_words
                0x00000000       0x18 build/kitronik_arcade_m4_J/flash_samd51.o
 .text          0x00000000        0x0 build/kitronik_arcade_m4_J/init_samd51.o
 .data          0x00000000        0x0 build/kitronik_arcade_m4_J/init_samd51.o
 .bss           0x00000000        0x0 build/kitronik_arcade_m4_J/init_samd51.o
 .text          0x00000000        0x0 build/kitronik_arcade_m4_J/startup_samd51.o
 .data          0x00000000        0x0 build/kitronik_arcade_m4_J/startup_samd51.o
 .bss           0x00000000        0x0 build/kitronik_arcade_m4_J/startup_samd51.o
 .text          0x00000000        0x0 build/kitronik_arcade_m4_J/usart_sam_ba.o
 .data          0x00000000        0x0 build/kitronik_arcade_m4_J/usart_sam_ba.o
 .bss           0x00000000        0x0 build/kitronik_arcade_m4_J/usart_sam_ba.o
 .text.usart_open
                0x00000000       0xb8 build/kitronik_arcade_m4_J/usart_sam_ba.o
 .text.usart_close
                0x00000000        0xc build/kitronik_arcade_m4_J/usart_sam_ba.o
 .text.usart_putc
                0x00000000       0x14 build/kitronik_arcade_m4_J/usart_sam_ba.o
 .text.usart_getc
                0x00000000       0x18 build/kitronik_arcade_m4_J/usart_sam_ba.o
 .text.usart_sharp_received
                0x00000000       0x2c build/kitronik_arcade_m4_J/usart_sam_ba.o
 .text.usart_is_rx_ready
                0x00000000       0x10 build/kitronik_arcade_m4_J/usart_sam_ba.o
 .text.usart_readc
                0x00000000       0x20 build/kitronik_arcade_m4_J/usart_sam_ba.o
 .text.usart_putdata
                0x00000000       0x20 build/kitronik_arcade_m4_J/usart_sam_ba.o
 .text.usart_getdata
                0x00000000       0x1c build/kitronik_arcade_m4_J/usart_sam_ba.o
 .text.add_crc  0x00000000       0x54 build/kitronik_arcade_m4_J/usart_sam_ba.o
 .text.getbytes
                0x00000000       0x84 build/kitronik_arcade_m4_J/usart_sam_ba.o
 .text.getPacket
                0x00000000       0x9c build/kitronik_arcade_m4_J/usart_sam_ba.o
 .text.usart_putdata_xmd
                0x00000000      0x154 build/kitronik_arcade_m4_J/usart_sam_ba.o
 .text.usart_getdata_xmd
                0x00000000       0xd0 build/kitronik_arcade_m4_J/usart_sam_ba.o
 .bss.crcCache  0x00000000      0x200 build/kitronik_arcade_m4_J/usart_sam_ba.o
 .debug_info    0x00000000     0x3eab build/kitronik_arcade_m4_J/usart_sam_ba.o
 .debug_abbrev  0x00000000      0x483 build/kitronik_arcade_m4_J/usart_sam_ba.o
 .debug_loc     0x00000000      0x98e build/kitronik_arcade_m4_J/usart_sam_ba.o
 .debug_aranges
                0x00000000       0x88 build/kitronik_arcade_m4_J/usart_sam_ba.o
 .debug_ranges  0x00000000      0x1e8 build/kitronik_arcade_m4_J/usart_sam_ba.o
 .debug_line    0x00000000      0x4a0 build/kitronik_arcade_m4_J/usart_sam_ba.o
 .debug_str     0x00000000     0x121d build/kitronik_arcade_m4_J/usart_sam_ba.o
 .comment       0x00000000       0x71 build/kitronik_arcade_m4_J/usart_sam_ba.o
 .debug_frame   0x00000000      0x1a8 build/kitronik_arcade_m4_J/usart_sam_ba.o
 .ARM.attributes
                0x00000000       0x33 build/kitronik_arcade_m4_J/usart_sam_ba.o
 COMMON         0x00000000      0x10c build/kitronik_arcade_m4_J/usart_sam_ba.o
 .text          0x00000000        0x0 build/kitronik_arcade_m4_J/screen.o
 .data          0x00000000        0x0 build/kitronik_arcade_m4_J/screen.o
 .bss           0x00000000        0x0 build/kitronik_arcade_m4_J/screen.o
 .text.pin_set  0x00000000       0x44 build/kitronik_arcade_m4_J/screen.o
 .text.transfer
                0x00000000       0xc8 build/kitronik_arcade_m4_J/screen.o
 .text.sendCmd  0x00000000       0x58 build/kitronik_arcade_m4_J/screen.o
 .text.printicon
                0x00000000       0xc4 build/kitronik_arcade_m4_J/screen.o
 .text.print    0x00000000       0x94 build/kitronik_arcade_m4_J/screen.o
 .text.print4   0x00000000       0x7c build/kitronik_arcade_m4_J/screen.o
 .text.draw_screen
                0x00000000       0x84 build/kitronik_arcade_m4_J/screen.o
 .text.drawBar  0x00000000       0x28 build/kitronik_arcade_m4_J/screen.o
 .text.draw_hf2
                0x00000000       0x2c build/kitronik_arcade_m4_J/screen.o
 .text.draw_drag
                0x00000000      0x108 build/kitronik_arcade_m4_J/screen.o
 .text.screen_init
                0x00000000      0x1bc build/kitronik_arcade_m4_J/screen.o
 .rodata.palette
                0x00000000       0x20 build/kitronik_arcade_m4_J/screen.o
 .rodata.initCmds
                0x00000000       0x25 build/kitronik_arcade_m4_J/screen.o
 .bss.palXOR    0x00000000        0x4 build/kitronik_arcade_m4_J/screen.o
 .rodata.str1.4
                0x00000000       0x71 build/kitronik_arcade_m4_J/screen.o
 .bss.cmdBuf    0x00000000       0x14 build/kitronik_arcade_m4_J/screen.o
 COMMON         0x00000000     0x5400 build/kitronik_arcade_m4_J/screen.o
 .text          0x00000000        0x0 build/kitronik_arcade_m4_J/images.o
 .data          0x00000000        0x0 build/kitronik_arcade_m4_J/images.o
 .bss           0x00000000        0x0 build/kitronik_arcade_m4_J/images.o
 .rodata.KitronikLogo
                0x00000000       0x4b build/kitronik_arcade_m4_J/images.o
 .rodata.pendriveLogo
                0x00000000       0x3e build/kitronik_arcade_m4_J/images.o
 .rodata.LargeOne
                0x00000000        0xd build/kitronik_arcade_m4_J/images.o
 .rodata.arrowLogo
                0x00000000       0x39 build/kitronik_arcade_m4_J/images.o
 .rodata.fileLogo
                0x00000000       0x4a build/kitronik_arcade_m4_J/images.o
 .rodata.LargeFive
                0x00000000       0x15 build/kitronik_arcade_m4_J/images.o
 .rodata.LargeD
                0x00000000       0x17 build/kitronik_arcade_m4_J/images.o
 .rodata.font8  0x00000000      0x300 build/kitronik_arcade_m4_J/images.o
 .debug_info    0x00000000      0x1b2 build/kitronik_arcade_m4_J/images.o
 .debug_abbrev  0x00000000       0x66 build/kitronik_arcade_m4_J/images.o
 .debug_aranges
                0x00000000       0x18 build/kitronik_arcade_m4_J/images.o
 .debug_line    0x00000000       0xf8 build/kitronik_arcade_m4_J/images.o
 .debug_str     0x00000000      0x20b build/kitronik_arcade_m4_J/images.o
 .comment       0x00000000       0x71 build/kitronik_arcade_m4_J/images.o
 .ARM.attributes
                0x00000000       0x33 build/kitronik_arcade_m4_J/images.o
 .text          0x00000000        0x0 build/kitronik_arcade_m4_J/utils.o
 .data          0x00000000        0x0 build/kitronik_arcade_m4_J/utils.o
 .bss           0x00000000        0x0 build/kitronik_arcade_m4_J/utils.o
 .text.panic    0x00000000        0x4 build/kitronik_arcade_m4_J/utils.o
 .text.writeNum
                0x00000000       0x40 build/kitronik_arcade_m4_J/utils.o
 .text.led_signal
                0x00000000       0x2c build/kitronik_arcade_m4_J/utils.o
 .text.write_apa_byte
                0x00000000       0x30 build/kitronik_arcade_m4_J/utils.o
 .text.timerTick
                0x00000000       0x3c build/kitronik_arcade_m4_J/utils.o
 .bss.timerLow  0x00000000        0x4 build/kitronik_arcade_m4_J/utils.o
 COMMON         0x00000000        0x8 build/kitronik_arcade_m4_J/utils.o
 .text          0x00000000        0x0 build/kitronik_arcade_m4_J/selfmain.o
 .data          0x00000000        0x0 build/kitronik_arcade_m4_J/selfmain.o
 .bss           0x00000000        0x0 build/kitronik_arcade_m4_J/selfmain.o
 .text          0x00000000        0x0 build/kitronik_arcade_m4_J/selfdata.o
 .data          0x00000000        0x0 build/kitronik_arcade_m4_J/selfdata.o
 .bss           0x00000000        0x0 build/kitronik_arcade_m4_J/selfdata.o
 .rodata.bootloader_crcs
                0x00000000       0x20 build/kitronik_arcade_m4_J/selfdata.o
 .text          0x00000000        0x0 c:/program files (x86)/gnu tools arm embedded/4.9 2015q2/bin/../lib/gcc/arm-none-eabi/4.9.3/../../../../arm-none-eabi/lib/armv7e-m\libg_nano.a(lib_a-memcpy.o)
 .data          0x00000000        0x0 c:/program files (x86)/gnu tools arm embedded/4.9 2015q2/bin/../lib/gcc/arm-none-eabi/4.9.3/../../../../arm-none-eabi/lib/armv7e-m\libg_nano.a(lib_a-memcpy.o)
 .bss           0x00000000        0x0 c:/program files (x86)/gnu tools arm embedded/4.9 2015q2/bin/../lib/gcc/arm-none-eabi/4.9.3/../../../../arm-none-eabi/lib/armv7e-m\libg_nano.a(lib_a-memcpy.o)
 .text          0x00000000        0x0 c:/program files (x86)/gnu tools arm embedded/4.9 2015q2/bin/../lib/gcc/arm-none-eabi/4.9.3/../../../../arm-none-eabi/lib/armv7e-m\libg_nano.a(lib_a-memset.o)
 .data          0x00000000        0x0 c:/program files (x86)/gnu tools arm embedded/4.9 2015q2/bin/../lib/gcc/arm-none-eabi/4.9.3/../../../../arm-none-eabi/lib/armv7e-m\libg_nano.a(lib_a-memset.o)
 .bss           0x00000000        0x0 c:/program files (x86)/gnu tools arm embedded/4.9 2015q2/bin/../lib/gcc/arm-none-eabi/4.9.3/../../../../arm-none-eabi/lib/armv7e-m\libg_nano.a(lib_a-memset.o)
 .text.memset   0x00000000       0x10 c:/program files (x86)/gnu tools arm embedded/4.9 2015q2/bin/../lib/gcc/arm-none-eabi/4.9.3/../../../../arm-none-eabi/lib/armv7e-m\libg_nano.a(lib_a-memset.o)
 .debug_frame   0x00000000       0x20 c:/program files (x86)/gnu tools arm embedded/4.9 2015q2/bin/../lib/gcc/arm-none-eabi/4.9.3/../../../../arm-none-eabi/lib/armv7e-m\libg_nano.a(lib_a-memset.o)
 .ARM.attributes
                0x00000000       0x2e c:/program files (x86)/gnu tools arm embedded/4.9 2015q2/bin/../lib/gcc/arm-none-eabi/4.9.3/../../../../arm-none-eabi/lib/armv7e-m\libg_nano.a(lib_a-memset.o)

Memory Configuration

Name             Origin             Length             Attributes
rom              0x00004000         0x0007c000         xr
ram              0x20000000         0x00030000         xrw
bkupram          0x47000000         0x00002000         xrw
qspi             0x04000000         0x01000000         xrw
*default*        0x00000000         0xffffffff

Linker script and memory map

LOAD build/kitronik_arcade_m4_J/flash_samd51.o
LOAD build/kitronik_arcade_m4_J/init_samd51.o
LOAD build/kitronik_arcade_m4_J/startup_samd51.o
LOAD build/kitronik_arcade_m4_J/usart_sam_ba.o
LOAD build/kitronik_arcade_m4_J/screen.o
LOAD build/kitronik_arcade_m4_J/images.o
LOAD build/kitronik_arcade_m4_J/utils.o
LOAD build/kitronik_arcade_m4_J/selfmain.o
LOAD build/kitronik_arcade_m4_J/selfdata.o
START GROUP
LOAD c:/program files (x86)/gnu tools arm embedded/4.9 2015q2/bin/../lib/gcc/arm-none-eabi/4.9.3/armv7e-m\libgcc.a
LOAD c:/program files (x86)/gnu tools arm embedded/4.9 2015q2/bin/../lib/gcc/arm-none-eabi/4.9.3/../../../../arm-none-eabi/lib/armv7e-m\libg_nano.a
LOAD c:/program files (x86)/gnu tools arm embedded/4.9 2015q2/bin/../lib/gcc/arm-none-eabi/4.9.3/../../../../arm-none-eabi/lib/armv7e-m\libc_nano.a
END GROUP
START GROUP
LOAD c:/program files (x86)/gnu tools arm embedded/4.9 2015q2/bin/../lib/gcc/arm-none-eabi/4.9.3/armv7e-m\libgcc.a
LOAD c:/program files (x86)/gnu tools arm embedded/4.9 2015q2/bin/../lib/gcc/arm-none-eabi/4.9.3/../../../../arm-none-eabi/lib/armv7e-m\libc_nano.a
LOAD c:/program files (x86)/gnu tools arm embedded/4.9 2015q2/bin/../lib/gcc/arm-none-eabi/4.9.3/../../../../arm-none-eabi/lib/armv7e-m\libnosys.a
END GROUP
START GROUP
LOAD c:/program files (x86)/gnu tools arm embedded/4.9 2015q2/bin/../lib/gcc/arm-none-eabi/4.9.3/armv7e-m\libgcc.a
LOAD c:/program files (x86)/gnu tools arm embedded/4.9 2015q2/bin/../lib/gcc/arm-none-eabi/4.9.3/../../../../arm-none-eabi/lib/armv7e-m\libc_nano.a
LOAD c:/program files (x86)/gnu tools arm embedded/4.9 2015q2/bin/../lib/gcc/arm-none-eabi/4.9.3/../../../../arm-none-eabi/lib/armv7e-m\libnosys.a
END GROUP
                0x0000c000                STACK_SIZE = DEFINED (STACK_SIZE)?STACK_SIZE:DEFINED (__stack_size__)?__stack_size__:0xc000

.text           0x00004000     0x49f8
                0x00004000                . = ALIGN (0x4)
                0x00004000                _sfixed = .
 *(.vectors .vectors.*)
 .vectors       0x00004000      0x264 build/kitronik_arcade_m4_J/startup_samd51.o
                0x00004000                exception_table
 *(.text .text.* .gnu.linkonce.t.*)
 .text.flash_write_words
                0x00004264       0x70 build/kitronik_arcade_m4_J/flash_samd51.o
                0x00004264                flash_write_words
 .text.flash_write_row
                0x000042d4      0x14c build/kitronik_arcade_m4_J/flash_samd51.o
                0x000042d4                flash_write_row
 .text.system_init
                0x00004420       0xd0 build/kitronik_arcade_m4_J/init_samd51.o
                0x00004420                system_init
 .text.SysTick_Handler
                0x000044f0        0x4 build/kitronik_arcade_m4_J/init_samd51.o
                0x000044f0                SysTick_Handler
 .text.Dummy_Handler
                0x000044f4        0x4 build/kitronik_arcade_m4_J/startup_samd51.o
                0x000044f4                EIC_5_Handler
                0x000044f4                SERCOM0_2_Handler
                0x000044f4                DebugMon_Handler
                0x000044f4                EIC_13_Handler
                0x000044f4                EVSYS_0_Handler
                0x000044f4                TCC1_3_Handler
                0x000044f4                DAC_3_Handler
                0x000044f4                TRNG_Handler
                0x000044f4                HardFault_Handler
                0x000044f4                TC2_Handler
                0x000044f4                PDEC_2_Handler
                0x000044f4                EIC_4_Handler
                0x000044f4                AC_Handler
                0x000044f4                SERCOM3_1_Handler
                0x000044f4                TCC2_3_Handler
                0x000044f4                SERCOM3_2_Handler
                0x000044f4                PendSV_Handler
                0x000044f4                NMI_Handler
                0x000044f4                ADC1_1_Handler
                0x000044f4                EVSYS_3_Handler
                0x000044f4                PDEC_0_Handler
                0x000044f4                QSPI_Handler
                0x000044f4                TCC0_0_Handler
                0x000044f4                EIC_3_Handler
                0x000044f4                TAL_0_Handler
                0x000044f4                DAC_2_Handler
                0x000044f4                SERCOM0_0_Handler
                0x000044f4                RTC_Handler
                0x000044f4                UsageFault_Handler
                0x000044f4                SERCOM4_0_Handler
                0x000044f4                EIC_10_Handler
                0x000044f4                SERCOM0_3_Handler
                0x000044f4                EIC_11_Handler
                0x000044f4                EIC_9_Handler
                0x000044f4                OSC32KCTRL_Handler
                0x000044f4                TCC2_1_Handler
                0x000044f4                SUPC_1_Handler
                0x000044f4                TCC0_5_Handler
                0x000044f4                TCC0_6_Handler
                0x000044f4                EVSYS_1_Handler
                0x000044f4                TCC1_4_Handler
                0x000044f4                DMAC_0_Handler
                0x000044f4                WDT_Handler
                0x000044f4                EIC_8_Handler
                0x000044f4                EIC_15_Handler
                0x000044f4                SERCOM5_0_Handler
                0x000044f4                TC4_Handler
                0x000044f4                TC1_Handler
                0x000044f4                OSCCTRL_4_Handler
                0x000044f4                SERCOM4_3_Handler
                0x000044f4                EIC_12_Handler
                0x000044f4                DMAC_4_Handler
                0x000044f4                TCC4_2_Handler
                0x000044f4                PAC_Handler
                0x000044f4                TCC1_0_Handler
                0x000044f4                USB_0_Handler
                0x000044f4                OSCCTRL_0_Handler
                0x000044f4                EIC_0_Handler
                0x000044f4                OSCCTRL_3_Handler
                0x000044f4                SERCOM4_1_Handler
                0x000044f4                TC3_Handler
                0x000044f4                Dummy_Handler
                0x000044f4                TCC3_0_Handler
                0x000044f4                TCC2_2_Handler
                0x000044f4                SERCOM5_1_Handler
                0x000044f4                TCC1_1_Handler
                0x000044f4                DMAC_2_Handler
                0x000044f4                ADC0_0_Handler
                0x000044f4                SERCOM0_1_Handler
                0x000044f4                OSCCTRL_2_Handler
                0x000044f4                ADC1_0_Handler
                0x000044f4                TCC1_2_Handler
                0x000044f4                USB_1_Handler
                0x000044f4                PM_Handler
                0x000044f4                SERCOM2_3_Handler
                0x000044f4                DAC_4_Handler
                0x000044f4                TCC3_2_Handler
                0x000044f4                TCC0_2_Handler
                0x000044f4                DMAC_1_Handler
                0x000044f4                TCC4_0_Handler
                0x000044f4                USB_3_Handler
                0x000044f4                TCC2_0_Handler
                0x000044f4                PDEC_1_Handler
                0x000044f4                MemManage_Handler
                0x000044f4                TCC4_1_Handler
                0x000044f4                SERCOM5_3_Handler
                0x000044f4                USB_2_Handler
                0x000044f4                SVC_Handler
                0x000044f4                SDHC0_Handler
                0x000044f4                SERCOM1_1_Handler
                0x000044f4                I2S_Handler
                0x000044f4                EIC_2_Handler
                0x000044f4                PCC_Handler
                0x000044f4                DAC_0_Handler
                0x000044f4                TCC0_1_Handler
                0x000044f4                SERCOM1_3_Handler
                0x000044f4                EIC_6_Handler
                0x000044f4                OSCCTRL_1_Handler
                0x000044f4                SERCOM1_0_Handler
                0x000044f4                PUKCC_Handler
                0x000044f4                SERCOM2_1_Handler
                0x000044f4                SERCOM1_2_Handler
                0x000044f4                SERCOM3_0_Handler
                0x000044f4                EIC_1_Handler
                0x000044f4                SERCOM4_2_Handler
                0x000044f4                EVSYS_4_Handler
                0x000044f4                EIC_7_Handler
                0x000044f4                NVMCTRL_1_Handler
                0x000044f4                SERCOM5_2_Handler
                0x000044f4                ADC0_1_Handler
                0x000044f4                SERCOM3_3_Handler
                0x000044f4                SERCOM2_2_Handler
                0x000044f4                TCC3_1_Handler
                0x000044f4                EIC_14_Handler
                0x000044f4                DAC_1_Handler
                0x000044f4                NVMCTRL_0_Handler
                0x000044f4                TAL_1_Handler
                0x000044f4                MCLK_Handler
                0x000044f4                EVSYS_2_Handler
                0x000044f4                SUPC_0_Handler
                0x000044f4                BusFault_Handler
                0x000044f4                FREQM_Handler
                0x000044f4                TC0_Handler
                0x000044f4                TCC0_3_Handler
                0x000044f4                DMAC_3_Handler
                0x000044f4                TCC0_4_Handler
                0x000044f4                RAMECC_Handler
                0x000044f4                TC5_Handler
                0x000044f4                SERCOM2_0_Handler
                0x000044f4                ICM_Handler
                0x000044f4                AES_Handler
 .text.Reset_Handler
                0x000044f8       0x74 build/kitronik_arcade_m4_J/startup_samd51.o
                0x000044f8                Reset_Handler
 .text.lookupCfg
                0x0000456c       0x48 build/kitronik_arcade_m4_J/screen.o
                0x0000456c                lookupCfg
 .text.setup_output_pin
                0x000045b4       0x28 build/kitronik_arcade_m4_J/screen.o
                0x000045b4                setup_output_pin
 .text.screen_early_init
                0x000045dc        0x8 build/kitronik_arcade_m4_J/screen.o
                0x000045dc                screen_early_init
 .text.NVIC_SystemReset
                0x000045e4       0x20 build/kitronik_arcade_m4_J/utils.o
 .text.delay    0x00004604       0x14 build/kitronik_arcade_m4_J/utils.o
                0x00004604                delay
 .text.resetIntoBootloader
                0x00004618       0x14 build/kitronik_arcade_m4_J/utils.o
                0x00004618                resetIntoBootloader
 .text.led_tick
                0x0000462c       0x9c build/kitronik_arcade_m4_J/utils.o
                0x0000462c                led_tick
 .text.RGBLED_set_color
                0x000046c8      0x16c build/kitronik_arcade_m4_J/utils.o
                0x000046c8                RGBLED_set_color
 .text.resetIntoApp
                0x00004834       0x1c build/kitronik_arcade_m4_J/utils.o
                0x00004834                resetIntoApp
 .text.led_init
                0x00004850       0x30 build/kitronik_arcade_m4_J/utils.o
                0x00004850                led_init
 .text.setBootProt
                0x00004880       0xa4 build/kitronik_arcade_m4_J/selfmain.o
                0x00004880                setBootProt
 .text.startup.main
                0x00004924       0xbc build/kitronik_arcade_m4_J/selfmain.o
                0x00004924                main
 .text.memcpy   0x000049e0       0x16 c:/program files (x86)/gnu tools arm embedded/4.9 2015q2/bin/../lib/gcc/arm-none-eabi/4.9.3/../../../../arm-none-eabi/lib/armv7e-m\libg_nano.a(lib_a-memcpy.o)
                0x000049e0                memcpy
 *(.glue_7t)
 .glue_7t       0x00000000        0x0 linker stubs
 *(.glue_7)
 .glue_7        0x00000000        0x0 linker stubs
 *(.rodata .rodata* .gnu.linkonce.r.*)
 *fill*         0x000049f6        0x2 
 .rodata.bootloader
                0x000049f8     0x4000 build/kitronik_arcade_m4_J/selfdata.o
                0x000049f8                bootloader
 *(.ARM.extab* .gnu.linkonce.armextab.*)
                0x000089f8                . = ALIGN (0x4)
 *(.init)
                0x000089f8                . = ALIGN (0x4)
                0x000089f8                __preinit_array_start = .
 *(.preinit_array)
                0x000089f8                __preinit_array_end = .
                0x000089f8                . = ALIGN (0x4)
                0x000089f8                __init_array_start = .
 *(SORT(.init_array.*))
 *(.init_array)
                0x000089f8                __init_array_end = .
                0x000089f8                . = ALIGN (0x4)
 *crtbegin.o(.ctors)
 *(EXCLUDE_FILE(*crtend.o) .ctors)
 *(SORT(.ctors.*))
 *crtend.o(.ctors)
                0x000089f8                . = ALIGN (0x4)
 *(.fini)
                0x000089f8                . = ALIGN (0x4)
                0x000089f8                __fini_array_start = .
 *(.fini_array)
 *(SORT(.fini_array.*))
                0x000089f8                __fini_array_end = .
 *crtbegin.o(.dtors)
 *(EXCLUDE_FILE(*crtend.o) .dtors)
 *(SORT(.dtors.*))
 *crtend.o(.dtors)
                0x000089f8                . = ALIGN (0x4)
                0x000089f8                _efixed = .
                0x000089f8                PROVIDE (__exidx_start, .)

.vfp11_veneer   0x000089f8        0x0
 .vfp11_veneer  0x00000000        0x0 linker stubs

.v4_bx          0x000089f8        0x0
 .v4_bx         0x00000000        0x0 linker stubs

.iplt           0x000089f8        0x0
 .iplt          0x00000000        0x0 build/kitronik_arcade_m4_J/flash_samd51.o

.igot.plt       0x000089f8        0x0
 .igot.plt      0x00000000        0x0 build/kitronik_arcade_m4_J/flash_samd51.o

.rel.dyn        0x000089f8        0x0
 .rel.iplt      0x00000000        0x0 build/kitronik_arcade_m4_J/flash_samd51.o

.ARM.exidx
 *(.ARM.exidx* .gnu.linkonce.armexidx.*)
                0x000089f8                PROVIDE (__exidx_end, .)
                0x000089f8                . = ALIGN (0x4)
                0x000089f8                _etext = .

.relocate       0x20000000        0x4 load address 0x000089f8
                0x20000000                . = ALIGN (0x4)
                0x20000000                _srelocate = .
 *(.ramfunc .ramfunc.*)
 *(.data .data.*)
 .data.led_tick_step
                0x20000000        0x1 build/kitronik_arcade_m4_J/utils.o
                0x20000000                led_tick_step
 .data.limit    0x20000001        0x1 build/kitronik_arcade_m4_J/utils.o
                0x20000004                . = ALIGN (0x4)
 *fill*         0x20000002        0x2 
                0x20000004                _erelocate = .

.bkupram        0x47000000        0x0
                0x47000000                . = ALIGN (0x8)
                0x47000000                _sbkupram = .
 *(.bkupram .bkupram.*)
                0x47000000                . = ALIGN (0x8)
                0x47000000                _ebkupram = .

.qspi           0x04000000        0x0
                0x04000000                . = ALIGN (0x8)
                0x04000000                _sqspi = .
 *(.qspi .qspi.*)
                0x04000000                . = ALIGN (0x8)
                0x04000000                _eqspi = .

.bss            0x20000004      0x948 load address 0x000089fc
                0x20000004                . = ALIGN (0x4)
                0x20000004                _sbss = .
                0x20000004                _szero = .
 *(.bss .bss.*)
 .bss.now       0x20000004        0x4 build/kitronik_arcade_m4_J/utils.o
 .bss.signal_end
                0x20000008        0x4 build/kitronik_arcade_m4_J/utils.o
 *(COMMON)
 COMMON         0x2000000c      0x840 build/kitronik_arcade_m4_J/flash_samd51.o
                0x2000000c                block_erased
                0x2000004c                row_same
 COMMON         0x2000084c      0x100 build/kitronik_arcade_m4_J/selfmain.o
                0x2000084c                pageBuf
                0x2000094c                . = ALIGN (0x4)
                0x2000094c                _ebss = .
                0x2000094c                _ezero = .

.stack          0x2000094c     0xc004 load address 0x00009344
                0x20000950                . = ALIGN (0x8)
 *fill*         0x2000094c        0x4 
                0x20000950                _sstack = .
                0x2000c950                . = (. + STACK_SIZE)
 *fill*         0x20000950     0xc000 
                0x2000c950                . = ALIGN (0x8)
                0x2000c950                _estack = .
                0x2000c950                . = ALIGN (0x4)
                0x2000c950                _end = .
OUTPUT(build/kitronik_arcade_m4_J/update-bootloader-kitronik_arcade_m4_J-v3.4.0-55-g7b6f05e-dirty.elf elf32-littlearm)

.debug_info     0x00000000     0x81ef
 .debug_info    0x00000000      0xda2 build/kitronik_arcade_m4_J/flash_samd51.o
 .debug_info    0x00000da2     0x2a61 build/kitronik_arcade_m4_J/init_samd51.o
 .debug_info    0x00003803      0xb4c build/kitronik_arcade_m4_J/startup_samd51.o
 .debug_info    0x0000434f     0x1aa2 build/kitronik_arcade_m4_J/screen.o
 .debug_info    0x00005df1      0xe52 build/kitronik_arcade_m4_J/utils.o
 .debug_info    0x00006c43     0x14c7 build/kitronik_arcade_m4_J/selfmain.o
 .debug_info    0x0000810a       0xe5 build/kitronik_arcade_m4_J/selfdata.o

.debug_abbrev   0x00000000     0x10f2
 .debug_abbrev  0x00000000      0x28b build/kitronik_arcade_m4_J/flash_samd51.o
 .debug_abbrev  0x0000028b      0x224 build/kitronik_arcade_m4_J/init_samd51.o
 .debug_abbrev  0x000004af      0x15e build/kitronik_arcade_m4_J/startup_samd51.o
 .debug_abbrev  0x0000060d      0x470 build/kitronik_arcade_m4_J/screen.o
 .debug_abbrev  0x00000a7d      0x33d build/kitronik_arcade_m4_J/utils.o
 .debug_abbrev  0x00000dba      0x2c1 build/kitronik_arcade_m4_J/selfmain.o
 .debug_abbrev  0x0000107b       0x77 build/kitronik_arcade_m4_J/selfdata.o

.debug_loc      0x00000000     0x1625
 .debug_loc     0x00000000      0x43b build/kitronik_arcade_m4_J/flash_samd51.o
 .debug_loc     0x0000043b       0x3e build/kitronik_arcade_m4_J/startup_samd51.o
 .debug_loc     0x00000479      0xd05 build/kitronik_arcade_m4_J/screen.o
 .debug_loc     0x0000117e      0x2d3 build/kitronik_arcade_m4_J/utils.o
 .debug_loc     0x00001451      0x1d4 build/kitronik_arcade_m4_J/selfmain.o

.debug_aranges  0x00000000      0x1d0
 .debug_aranges
                0x00000000       0x40 build/kitronik_arcade_m4_J/flash_samd51.o
 .debug_aranges
                0x00000040       0x28 build/kitronik_arcade_m4_J/init_samd51.o
 .debug_aranges
                0x00000068       0x28 build/kitronik_arcade_m4_J/startup_samd51.o
 .debug_aranges
                0x00000090       0x88 build/kitronik_arcade_m4_J/screen.o
 .debug_aranges
                0x00000118       0x78 build/kitronik_arcade_m4_J/utils.o
 .debug_aranges
                0x00000190       0x28 build/kitronik_arcade_m4_J/selfmain.o
 .debug_aranges
                0x000001b8       0x18 build/kitronik_arcade_m4_J/selfdata.o

.debug_ranges   0x00000000      0x390
 .debug_ranges  0x00000000       0x60 build/kitronik_arcade_m4_J/flash_samd51.o
 .debug_ranges  0x00000060       0x60 build/kitronik_arcade_m4_J/init_samd51.o
 .debug_ranges  0x000000c0       0x18 build/kitronik_arcade_m4_J/startup_samd51.o
 .debug_ranges  0x000000d8      0x178 build/kitronik_arcade_m4_J/screen.o
 .debug_ranges  0x00000250      0x110 build/kitronik_arcade_m4_J/utils.o
 .debug_ranges  0x00000360       0x30 build/kitronik_arcade_m4_J/selfmain.o

.debug_line     0x00000000     0x1274
 .debug_line    0x00000000      0x261 build/kitronik_arcade_m4_J/flash_samd51.o
 .debug_line    0x00000261      0x246 build/kitronik_arcade_m4_J/init_samd51.o
 .debug_line    0x000004a7      0x182 build/kitronik_arcade_m4_J/startup_samd51.o
 .debug_line    0x00000629      0x4e0 build/kitronik_arcade_m4_J/screen.o
 .debug_line    0x00000b09      0x3dc build/kitronik_arcade_m4_J/utils.o
 .debug_line    0x00000ee5      0x27e build/kitronik_arcade_m4_J/selfmain.o
 .debug_line    0x00001163      0x111 build/kitronik_arcade_m4_J/selfdata.o

.debug_str      0x00000000     0x24be
 .debug_str     0x00000000      0x50b build/kitronik_arcade_m4_J/flash_samd51.o
                                0x58e (size before relaxing)
 .debug_str     0x0000050b      0xee4 build/kitronik_arcade_m4_J/init_samd51.o
                               0x13c5 (size before relaxing)
 .debug_str     0x000013ef      0xb05 build/kitronik_arcade_m4_J/startup_samd51.o
                                0xd63 (size before relaxing)
 .debug_str     0x00001ef4      0x454 build/kitronik_arcade_m4_J/screen.o
                                0x69c (size before relaxing)
 .debug_str     0x00002348       0xe2 build/kitronik_arcade_m4_J/utils.o
                                0x553 (size before relaxing)
 .debug_str     0x0000242a       0x5e build/kitronik_arcade_m4_J/selfmain.o
                                0x7b0 (size before relaxing)
 .debug_str     0x00002488       0x36 build/kitronik_arcade_m4_J/selfdata.o
                                0x206 (size before relaxing)

.comment        0x00000000       0x70
 .comment       0x00000000       0x70 build/kitronik_arcade_m4_J/flash_samd51.o
                                 0x71 (size before relaxing)
 .comment       0x00000000       0x71 build/kitronik_arcade_m4_J/init_samd51.o
 .comment       0x00000000       0x71 build/kitronik_arcade_m4_J/startup_samd51.o
 .comment       0x00000000       0x71 build/kitronik_arcade_m4_J/screen.o
 .comment       0x00000000       0x71 build/kitronik_arcade_m4_J/utils.o
 .comment       0x00000000       0x71 build/kitronik_arcade_m4_J/selfmain.o
 .comment       0x00000000       0x71 build/kitronik_arcade_m4_J/selfdata.o

.ARM.attributes
                0x00000000       0x33
 .ARM.attributes
                0x00000000       0x33 build/kitronik_arcade_m4_J/flash_samd51.o
 .ARM.attributes
                0x00000033       0x33 build/kitronik_arcade_m4_J/init_samd51.o
 .ARM.attributes
                0x00000066       0x33 build/kitronik_arcade_m4_J/startup_samd51.o
 .ARM.attributes
                0x00000099       0x33 build/kitronik_arcade_m4_J/screen.o
 .ARM.attributes
                0x000000cc       0x33 build/kitronik_arcade_m4_J/utils.o
 .ARM.attributes
                0x000000ff       0x33 build/kitronik_arcade_m4_J/selfmain.o
 .ARM.attributes
                0x00000132       0x33 build/kitronik_arcade_m4_J/selfdata.o
 .ARM.attributes
                0x00000165       0x2e c:/program files (x86)/gnu tools arm embedded/4.9 2015q2/bin/../lib/gcc/arm-none-eabi/4.9.3/../../../../arm-none-eabi/lib/armv7e-m\libg_nano.a(lib_a-memcpy.o)

.debug_frame    0x00000000      0x4f0
 .debug_frame   0x00000000       0xa8 build/kitronik_arcade_m4_J/flash_samd51.o
 .debug_frame   0x000000a8       0x44 build/kitronik_arcade_m4_J/init_samd51.o
 .debug_frame   0x000000ec       0x38 build/kitronik_arcade_m4_J/startup_samd51.o
 .debug_frame   0x00000124      0x1ec build/kitronik_arcade_m4_J/screen.o
 .debug_frame   0x00000310      0x15c build/kitronik_arcade_m4_J/utils.o
 .debug_frame   0x0000046c       0x5c build/kitronik_arcade_m4_J/selfmain.o
 .debug_frame   0x000004c8       0x28 c:/program files (x86)/gnu tools arm embedded/4.9 2015q2/bin/../lib/gcc/arm-none-eabi/4.9.3/../../../../arm-none-eabi/lib/armv7e-m\libg_nano.a(lib_a-memcpy.o)

Cross Reference Table

Symbol                                            File
AC_Handler                                        build/kitronik_arcade_m4_J/startup_samd51.o
ADC0_0_Handler                                    build/kitronik_arcade_m4_J/startup_samd51.o
ADC0_1_Handler                                    build/kitronik_arcade_m4_J/startup_samd51.o
ADC1_0_Handler                                    build/kitronik_arcade_m4_J/startup_samd51.o
ADC1_1_Handler                                    build/kitronik_arcade_m4_J/startup_samd51.o
AES_Handler                                       build/kitronik_arcade_m4_J/startup_samd51.o
BusFault_Handler                                  build/kitronik_arcade_m4_J/startup_samd51.o
DAC_0_Handler                                     build/kitronik_arcade_m4_J/startup_samd51.o
DAC_1_Handler                                     build/kitronik_arcade_m4_J/startup_samd51.o
DAC_2_Handler                                     build/kitronik_arcade_m4_J/startup_samd51.o
DAC_3_Handler                                     build/kitronik_arcade_m4_J/startup_samd51.o
DAC_4_Handler                                     build/kitronik_arcade_m4_J/startup_samd51.o
DMAC_0_Handler                                    build/kitronik_arcade_m4_J/startup_samd51.o
DMAC_1_Handler                                    build/kitronik_arcade_m4_J/startup_samd51.o
DMAC_2_Handler                                    build/kitronik_arcade_m4_J/startup_samd51.o
DMAC_3_Handler                                    build/kitronik_arcade_m4_J/startup_samd51.o
DMAC_4_Handler                                    build/kitronik_arcade_m4_J/startup_samd51.o
DebugMon_Handler                                  build/kitronik_arcade_m4_J/startup_samd51.o
Dummy_Handler                                     build/kitronik_arcade_m4_J/startup_samd51.o
EIC_0_Handler                                     build/kitronik_arcade_m4_J/startup_samd51.o
EIC_10_Handler                                    build/kitronik_arcade_m4_J/startup_samd51.o
EIC_11_Handler                                    build/kitronik_arcade_m4_J/startup_samd51.o
EIC_12_Handler                                    build/kitronik_arcade_m4_J/startup_samd51.o
EIC_13_Handler                                    build/kitronik_arcade_m4_J/startup_samd51.o
EIC_14_Handler                                    build/kitronik_arcade_m4_J/startup_samd51.o
EIC_15_Handler                                    build/kitronik_arcade_m4_J/startup_samd51.o
EIC_1_Handler                                     build/kitronik_arcade_m4_J/startup_samd51.o
EIC_2_Handler                                     build/kitronik_arcade_m4_J/startup_samd51.o
EIC_3_Handler                                     build/kitronik_arcade_m4_J/startup_samd51.o
EIC_4_Handler                                     build/kitronik_arcade_m4_J/startup_samd51.o
EIC_5_Handler                                     build/kitronik_arcade_m4_J/startup_samd51.o
EIC_6_Handler                                     build/kitronik_arcade_m4_J/startup_samd51.o
EIC_7_Handler                                     build/kitronik_arcade_m4_J/startup_samd51.o
EIC_8_Handler                                     build/kitronik_arcade_m4_J/startup_samd51.o
EIC_9_Handler                                     build/kitronik_arcade_m4_J/startup_samd51.o
EVSYS_0_Handler                                   build/kitronik_arcade_m4_J/startup_samd51.o
EVSYS_1_Handler                                   build/kitronik_arcade_m4_J/startup_samd51.o
EVSYS_2_Handler                                   build/kitronik_arcade_m4_J/startup_samd51.o
EVSYS_3_Handler                                   build/kitronik_arcade_m4_J/startup_samd51.o
EVSYS_4_Handler                                   build/kitronik_arcade_m4_J/startup_samd51.o
FREQM_Handler                                     build/kitronik_arcade_m4_J/startup_samd51.o
HardFault_Handler                                 build/kitronik_arcade_m4_J/startup_samd51.o
I2S_Handler                                       build/kitronik_arcade_m4_J/startup_samd51.o
ICM_Handler                                       build/kitronik_arcade_m4_J/startup_samd51.o
KitronikLogo                                      build/kitronik_arcade_m4_J/images.o
                                                  build/kitronik_arcade_m4_J/screen.o
LargeD                                            build/kitronik_arcade_m4_J/images.o
                                                  build/kitronik_arcade_m4_J/screen.o
LargeFive                                         build/kitronik_arcade_m4_J/images.o
                                                  build/kitronik_arcade_m4_J/screen.o
LargeOne                                          build/kitronik_arcade_m4_J/images.o
                                                  build/kitronik_arcade_m4_J/screen.o
MCLK_Handler                                      build/kitronik_arcade_m4_J/startup_samd51.o
MemManage_Handler                                 build/kitronik_arcade_m4_J/startup_samd51.o
NMI_Handler                                       build/kitronik_arcade_m4_J/startup_samd51.o
NVMCTRL_0_Handler                                 build/kitronik_arcade_m4_J/startup_samd51.o
NVMCTRL_1_Handler                                 build/kitronik_arcade_m4_J/startup_samd51.o
OSC32KCTRL_Handler                                build/kitronik_arcade_m4_J/startup_samd51.o
OSCCTRL_0_Handler                                 build/kitronik_arcade_m4_J/startup_samd51.o
OSCCTRL_1_Handler                                 build/kitronik_arcade_m4_J/startup_samd51.o
OSCCTRL_2_Handler                                 build/kitronik_arcade_m4_J/startup_samd51.o
OSCCTRL_3_Handler                                 build/kitronik_arcade_m4_J/startup_samd51.o
OSCCTRL_4_Handler                                 build/kitronik_arcade_m4_J/startup_samd51.o
PAC_Handler                                       build/kitronik_arcade_m4_J/startup_samd51.o
PCC_Handler                                       build/kitronik_arcade_m4_J/startup_samd51.o
PDEC_0_Handler                                    build/kitronik_arcade_m4_J/startup_samd51.o
PDEC_1_Handler                                    build/kitronik_arcade_m4_J/startup_samd51.o
PDEC_2_Handler                                    build/kitronik_arcade_m4_J/startup_samd51.o
PM_Handler                                        build/kitronik_arcade_m4_J/startup_samd51.o
PUKCC_Handler                                     build/kitronik_arcade_m4_J/startup_samd51.o
PendSV_Handler                                    build/kitronik_arcade_m4_J/startup_samd51.o
QSPI_Handler                                      build/kitronik_arcade_m4_J/startup_samd51.o
RAMECC_Handler                                    build/kitronik_arcade_m4_J/startup_samd51.o
RGBLED_set_color                                  build/kitronik_arcade_m4_J/utils.o
RTC_Handler                                       build/kitronik_arcade_m4_J/startup_samd51.o
Reset_Handler                                     build/kitronik_arcade_m4_J/startup_samd51.o
SDHC0_Handler                                     build/kitronik_arcade_m4_J/startup_samd51.o
SERCOM0_0_Handler                                 build/kitronik_arcade_m4_J/startup_samd51.o
SERCOM0_1_Handler                                 build/kitronik_arcade_m4_J/startup_samd51.o
SERCOM0_2_Handler                                 build/kitronik_arcade_m4_J/startup_samd51.o
SERCOM0_3_Handler                                 build/kitronik_arcade_m4_J/startup_samd51.o
SERCOM1_0_Handler                                 build/kitronik_arcade_m4_J/startup_samd51.o
SERCOM1_1_Handler                                 build/kitronik_arcade_m4_J/startup_samd51.o
SERCOM1_2_Handler                                 build/kitronik_arcade_m4_J/startup_samd51.o
SERCOM1_3_Handler                                 build/kitronik_arcade_m4_J/startup_samd51.o
SERCOM2_0_Handler                                 build/kitronik_arcade_m4_J/startup_samd51.o
SERCOM2_1_Handler                                 build/kitronik_arcade_m4_J/startup_samd51.o
SERCOM2_2_Handler                                 build/kitronik_arcade_m4_J/startup_samd51.o
SERCOM2_3_Handler                                 build/kitronik_arcade_m4_J/startup_samd51.o
SERCOM3_0_Handler                                 build/kitronik_arcade_m4_J/startup_samd51.o
SERCOM3_1_Handler                                 build/kitronik_arcade_m4_J/startup_samd51.o
SERCOM3_2_Handler                                 build/kitronik_arcade_m4_J/startup_samd51.o
SERCOM3_3_Handler                                 build/kitronik_arcade_m4_J/startup_samd51.o
SERCOM4_0_Handler                                 build/kitronik_arcade_m4_J/startup_samd51.o
SERCOM4_1_Handler                                 build/kitronik_arcade_m4_J/startup_samd51.o
SERCOM4_2_Handler                                 build/kitronik_arcade_m4_J/startup_samd51.o
SERCOM4_3_Handler                                 build/kitronik_arcade_m4_J/startup_samd51.o
SERCOM5_0_Handler                                 build/kitronik_arcade_m4_J/startup_samd51.o
SERCOM5_1_Handler                                 build/kitronik_arcade_m4_J/startup_samd51.o
SERCOM5_2_Handler                                 build/kitronik_arcade_m4_J/startup_samd51.o
SERCOM5_3_Handler                                 build/kitronik_arcade_m4_J/startup_samd51.o
SUPC_0_Handler                                    build/kitronik_arcade_m4_J/startup_samd51.o
SUPC_1_Handler                                    build/kitronik_arcade_m4_J/startup_samd51.o
SVC_Handler                                       build/kitronik_arcade_m4_J/startup_samd51.o
SysTick_Handler                                   build/kitronik_arcade_m4_J/init_samd51.o
TAL_0_Handler                                     build/kitronik_arcade_m4_J/startup_samd51.o
TAL_1_Handler                                     build/kitronik_arcade_m4_J/startup_samd51.o
TC0_Handler                                       build/kitronik_arcade_m4_J/startup_samd51.o
TC1_Handler                                       build/kitronik_arcade_m4_J/startup_samd51.o
TC2_Handler                                       build/kitronik_arcade_m4_J/startup_samd51.o
TC3_Handler                                       build/kitronik_arcade_m4_J/startup_samd51.o
TC4_Handler                                       build/kitronik_arcade_m4_J/startup_samd51.o
TC5_Handler                                       build/kitronik_arcade_m4_J/startup_samd51.o
TCC0_0_Handler                                    build/kitronik_arcade_m4_J/startup_samd51.o
TCC0_1_Handler                                    build/kitronik_arcade_m4_J/startup_samd51.o
TCC0_2_Handler                                    build/kitronik_arcade_m4_J/startup_samd51.o
TCC0_3_Handler                                    build/kitronik_arcade_m4_J/startup_samd51.o
TCC0_4_Handler                                    build/kitronik_arcade_m4_J/startup_samd51.o
TCC0_5_Handler                                    build/kitronik_arcade_m4_J/startup_samd51.o
TCC0_6_Handler                                    build/kitronik_arcade_m4_J/startup_samd51.o
TCC1_0_Handler                                    build/kitronik_arcade_m4_J/startup_samd51.o
TCC1_1_Handler                                    build/kitronik_arcade_m4_J/startup_samd51.o
TCC1_2_Handler                                    build/kitronik_arcade_m4_J/startup_samd51.o
TCC1_3_Handler                                    build/kitronik_arcade_m4_J/startup_samd51.o
TCC1_4_Handler                                    build/kitronik_arcade_m4_J/startup_samd51.o
TCC2_0_Handler                                    build/kitronik_arcade_m4_J/startup_samd51.o
TCC2_1_Handler                                    build/kitronik_arcade_m4_J/startup_samd51.o
TCC2_2_Handler                                    build/kitronik_arcade_m4_J/startup_samd51.o
TCC2_3_Handler                                    build/kitronik_arcade_m4_J/startup_samd51.o
TCC3_0_Handler                                    build/kitronik_arcade_m4_J/startup_samd51.o
TCC3_1_Handler                                    build/kitronik_arcade_m4_J/startup_samd51.o
TCC3_2_Handler                                    build/kitronik_arcade_m4_J/startup_samd51.o
TCC4_0_Handler                                    build/kitronik_arcade_m4_J/startup_samd51.o
TCC4_1_Handler                                    build/kitronik_arcade_m4_J/startup_samd51.o
TCC4_2_Handler                                    build/kitronik_arcade_m4_J/startup_samd51.o
TRNG_Handler                                      build/kitronik_arcade_m4_J/startup_samd51.o
USB_0_Handler                                     build/kitronik_arcade_m4_J/startup_samd51.o
USB_1_Handler                                     build/kitronik_arcade_m4_J/startup_samd51.o
USB_2_Handler                                     build/kitronik_arcade_m4_J/startup_samd51.o
USB_3_Handler                                     build/kitronik_arcade_m4_J/startup_samd51.o
UsageFault_Handler                                build/kitronik_arcade_m4_J/startup_samd51.o
WDT_Handler                                       build/kitronik_arcade_m4_J/startup_samd51.o
_erelocate                                        build/kitronik_arcade_m4_J/startup_samd51.o
_estack                                           build/kitronik_arcade_m4_J/startup_samd51.o
_etext                                            build/kitronik_arcade_m4_J/startup_samd51.o
_ezero                                            build/kitronik_arcade_m4_J/startup_samd51.o
_sfixed                                           build/kitronik_arcade_m4_J/startup_samd51.o
_srelocate                                        build/kitronik_arcade_m4_J/startup_samd51.o
_szero                                            build/kitronik_arcade_m4_J/startup_samd51.o
add_crc                                           build/kitronik_arcade_m4_J/usart_sam_ba.o
arrowLogo                                         build/kitronik_arcade_m4_J/images.o
                                                  build/kitronik_arcade_m4_J/screen.o
b_sharp_received                                  build/kitronik_arcade_m4_J/usart_sam_ba.o
block_erased                                      build/kitronik_arcade_m4_J/flash_samd51.o
bootloader                                        build/kitronik_arcade_m4_J/selfdata.o
                                                  build/kitronik_arcade_m4_J/selfmain.o
bootloader_crcs                                   build/kitronik_arcade_m4_J/selfdata.o
buffer_rx_usart                                   build/kitronik_arcade_m4_J/usart_sam_ba.o
buffer_tx_usart                                   build/kitronik_arcade_m4_J/usart_sam_ba.o
copy_words                                        build/kitronik_arcade_m4_J/flash_samd51.o
delay                                             build/kitronik_arcade_m4_J/utils.o
                                                  build/kitronik_arcade_m4_J/selfmain.o
drawBar                                           build/kitronik_arcade_m4_J/screen.o
draw_drag                                         build/kitronik_arcade_m4_J/screen.o
draw_hf2                                          build/kitronik_arcade_m4_J/screen.o
draw_screen                                       build/kitronik_arcade_m4_J/screen.o
error_timeout                                     build/kitronik_arcade_m4_J/usart_sam_ba.o
exception_table                                   build/kitronik_arcade_m4_J/startup_samd51.o
fb                                                build/kitronik_arcade_m4_J/screen.o
fileLogo                                          build/kitronik_arcade_m4_J/images.o
                                                  build/kitronik_arcade_m4_J/screen.o
flash_erase_block                                 build/kitronik_arcade_m4_J/flash_samd51.o
flash_erase_to_end                                build/kitronik_arcade_m4_J/flash_samd51.o
flash_write_row                                   build/kitronik_arcade_m4_J/flash_samd51.o
                                                  build/kitronik_arcade_m4_J/selfmain.o
flash_write_words                                 build/kitronik_arcade_m4_J/flash_samd51.o
                                                  build/kitronik_arcade_m4_J/selfmain.o
font8                                             build/kitronik_arcade_m4_J/images.o
                                                  build/kitronik_arcade_m4_J/screen.o
getPacket                                         build/kitronik_arcade_m4_J/usart_sam_ba.o
idx_rx_read                                       build/kitronik_arcade_m4_J/usart_sam_ba.o
idx_rx_write                                      build/kitronik_arcade_m4_J/usart_sam_ba.o
idx_tx_read                                       build/kitronik_arcade_m4_J/usart_sam_ba.o
idx_tx_write                                      build/kitronik_arcade_m4_J/usart_sam_ba.o
led_init                                          build/kitronik_arcade_m4_J/utils.o
                                                  build/kitronik_arcade_m4_J/selfmain.o
led_signal                                        build/kitronik_arcade_m4_J/utils.o
led_tick                                          build/kitronik_arcade_m4_J/utils.o
                                                  build/kitronik_arcade_m4_J/init_samd51.o
led_tick_step                                     build/kitronik_arcade_m4_J/utils.o
lookupCfg                                         build/kitronik_arcade_m4_J/screen.o
main                                              build/kitronik_arcade_m4_J/selfmain.o
                                                  build/kitronik_arcade_m4_J/startup_samd51.o
memcpy                                            c:/program files (x86)/gnu tools arm embedded/4.9 2015q2/bin/../lib/gcc/arm-none-eabi/4.9.3/../../../../arm-none-eabi/lib/armv7e-m\libg_nano.a(lib_a-memcpy.o)
                                                  build/kitronik_arcade_m4_J/selfmain.o
                                                  build/kitronik_arcade_m4_J/screen.o
                                                  build/kitronik_arcade_m4_J/flash_samd51.o
memset                                            c:/program files (x86)/gnu tools arm embedded/4.9 2015q2/bin/../lib/gcc/arm-none-eabi/4.9.3/../../../../arm-none-eabi/lib/armv7e-m\libg_nano.a(lib_a-memset.o)
                                                  build/kitronik_arcade_m4_J/screen.o
mode_of_transfer                                  build/kitronik_arcade_m4_J/usart_sam_ba.o
pageBuf                                           build/kitronik_arcade_m4_J/selfmain.o
palette                                           build/kitronik_arcade_m4_J/screen.o
panic                                             build/kitronik_arcade_m4_J/utils.o
                                                  build/kitronik_arcade_m4_J/screen.o
pendriveLogo                                      build/kitronik_arcade_m4_J/images.o
                                                  build/kitronik_arcade_m4_J/screen.o
pin_set                                           build/kitronik_arcade_m4_J/screen.o
print                                             build/kitronik_arcade_m4_J/screen.o
print4                                            build/kitronik_arcade_m4_J/screen.o
printicon                                         build/kitronik_arcade_m4_J/screen.o
resetHorizon                                      build/kitronik_arcade_m4_J/utils.o
resetIntoApp                                      build/kitronik_arcade_m4_J/utils.o
                                                  build/kitronik_arcade_m4_J/selfmain.o
resetIntoBootloader                               build/kitronik_arcade_m4_J/utils.o
                                                  build/kitronik_arcade_m4_J/selfmain.o
row_same                                          build/kitronik_arcade_m4_J/flash_samd51.o
screen_early_init                                 build/kitronik_arcade_m4_J/screen.o
                                                  build/kitronik_arcade_m4_J/utils.o
screen_init                                       build/kitronik_arcade_m4_J/screen.o
setBootProt                                       build/kitronik_arcade_m4_J/selfmain.o
setup_output_pin                                  build/kitronik_arcade_m4_J/screen.o
size_of_data                                      build/kitronik_arcade_m4_J/usart_sam_ba.o
system_init                                       build/kitronik_arcade_m4_J/init_samd51.o
                                                  build/kitronik_arcade_m4_J/selfmain.o
timerHigh                                         build/kitronik_arcade_m4_J/utils.o
timerTick                                         build/kitronik_arcade_m4_J/utils.o
transfer                                          build/kitronik_arcade_m4_J/screen.o
uart_basic_init                                   build/kitronik_arcade_m4_J/usart_sam_ba.o
uart_disable                                      build/kitronik_arcade_m4_J/usart_sam_ba.o
uart_read_byte                                    build/kitronik_arcade_m4_J/usart_sam_ba.o
uart_write_byte                                   build/kitronik_arcade_m4_J/usart_sam_ba.o
usart_close                                       build/kitronik_arcade_m4_J/usart_sam_ba.o
usart_getc                                        build/kitronik_arcade_m4_J/usart_sam_ba.o
usart_getdata                                     build/kitronik_arcade_m4_J/usart_sam_ba.o
usart_getdata_xmd                                 build/kitronik_arcade_m4_J/usart_sam_ba.o
usart_is_rx_ready                                 build/kitronik_arcade_m4_J/usart_sam_ba.o
usart_open                                        build/kitronik_arcade_m4_J/usart_sam_ba.o
usart_putc                                        build/kitronik_arcade_m4_J/usart_sam_ba.o
usart_putdata                                     build/kitronik_arcade_m4_J/usart_sam_ba.o
usart_putdata_xmd                                 build/kitronik_arcade_m4_J/usart_sam_ba.o
usart_readc                                       build/kitronik_arcade_m4_J/usart_sam_ba.o
usart_sharp_received                              build/kitronik_arcade_m4_J/usart_sam_ba.o
writeNum                                          build/kitronik_arcade_m4_J/utils.o
write_apa_byte                                    build/kitronik_arcade_m4_J/utils.o
